target datalayout = "e-m:e-p270:32:32-p271:32:32-p272:64:64-i64:64-i128:128-f80:128-n8:16:32:64-S128"
target triple = "x86_64-unknown-linux-gnu"

%"class.google::protobuf::io::GzipInputStream" = type { %"class.google::protobuf::io::ZeroCopyInputStream", i32, ptr, %struct.z_stream_s, i32, ptr, ptr, i64, i64 }
%"class.google::protobuf::io::ZeroCopyInputStream" = type { ptr }
%struct.z_stream_s = type { ptr, i32, i64, ptr, i32, i64, ptr, ptr, ptr, ptr, ptr, i32, i64, i64 }

; Function Attrs: mustprogress nounwind uwtable
define linkonce_odr hidden void @_ZN6google8protobuf2io19ZeroCopyInputStreamD2Ev(ptr noundef nonnull align 8 dereferenceable(8) %this) unnamed_addr #5 comdat align 2 {
entry:
  %this.addr = alloca ptr, align 8
  store ptr %this, ptr %this.addr, align 8
  ret void
}

; Function Attrs: mustprogress nounwind uwtable
define linkonce_odr hidden void @_ZN6google8protobuf8internal11SizedDeleteEPvm(ptr noundef %p, i64 noundef %size) #5 comdat {
entry:
  %p.addr = alloca ptr, align 8
  %size.addr = alloca i64, align 8
  store ptr %p, ptr %p.addr, align 8
  store i64 %size, ptr %size.addr, align 8
  %0 = load ptr, ptr %p.addr, align 8
  call void @_ZdlPv(ptr noundef %0) #3
  ret void
}

; Function Attrs: mustprogress nounwind uwtable
define void @_ZN6google8protobuf2io15GzipInputStreamD2Ev(ptr noundef nonnull align 8 dereferenceable(176) %this) unnamed_addr #5 align 2 personality ptr @__gxx_personality_v0 {
entry:
  %this.addr = alloca ptr, align 8
  store ptr %this, ptr %this.addr, align 8
  %this1 = load ptr, ptr %this.addr, align 8
  %output_buffer_ = getelementptr inbounds %"class.google::protobuf::io::GzipInputStream", ptr %this1, i32 0, i32 5
  %0 = load ptr, ptr %output_buffer_, align 8
  %output_buffer_length_ = getelementptr inbounds %"class.google::protobuf::io::GzipInputStream", ptr %this1, i32 0, i32 7
  %1 = load i64, ptr %output_buffer_length_, align 8
  invoke void @_ZN6google8protobuf8internal11SizedDeleteEPvm(ptr noundef %0, i64 noundef %1)
          to label %invoke.cont unwind label %terminate.lpad

invoke.cont:                                      ; preds = %entry
  %zcontext_ = getelementptr inbounds %"class.google::protobuf::io::GzipInputStream", ptr %this1, i32 0, i32 3
  %call = invoke i32 @inflateEnd(ptr noundef %zcontext_)
          to label %invoke.cont2 unwind label %terminate.lpad

invoke.cont2:                                     ; preds = %invoke.cont
  %zerror_ = getelementptr inbounds %"class.google::protobuf::io::GzipInputStream", ptr %this1, i32 0, i32 4
  store i32 %call, ptr %zerror_, align 8
  call void @_ZN6google8protobuf2io19ZeroCopyInputStreamD2Ev(ptr noundef nonnull align 8 dereferenceable(8) %this1) #3
  ret void

terminate.lpad:                                   ; preds = %invoke.cont, %entry
  %2 = landingpad { ptr, i32 }
          catch ptr null
  %3 = extractvalue { ptr, i32 } %2, 0
  call void @__clang_call_terminate(ptr %3) #13
  unreachable
}