; Function Attrs: mustprogress nounwind uwtable
define void @_ZN6google8protobuf2io15GzipInputStreamD2Ev(ptr noundef nonnull align 8 dereferenceable(176) %this) unnamed_addr #7 align 2 personality ptr @__gxx_personality_v0 {
entry:
  %output_buffer_ = getelementptr inbounds i8, ptr %this, i64 144
  %0 = load ptr, ptr %output_buffer_, align 8
  tail call void @_ZdlPv(ptr noundef %0) #16
  %zcontext_ = getelementptr inbounds i8, ptr %this, i64 24
  %call = invoke i32 @inflateEnd(ptr noundef nonnull %zcontext_)
          to label %invoke.cont2 unwind label %terminate.lpad

invoke.cont2:                                     ; preds = %entry
  %zerror_ = getelementptr inbounds i8, ptr %this, i64 136
  store i32 %call, ptr %zerror_, align 8
  ret void

terminate.lpad:                                   ; preds = %entry
  %1 = landingpad { ptr, i32 }
          catch ptr null
  %2 = extractvalue { ptr, i32 } %1, 0
  tail call void @__clang_call_terminate(ptr %2) #17
  unreachable
}